; Function Attrs: nounwind uwtable
define ptr @Gia_ManFromAigChoices(ptr noundef %0) local_unnamed_addr #0 {
  %2 = getelementptr i8, ptr %0, i64 32
  %.val45 = load ptr, ptr %2, align 8, !tbaa !46
  %3 = getelementptr i8, ptr %0, i64 156
  %.val46 = load i32, ptr %3, align 4, !tbaa !47
  %4 = getelementptr i8, ptr %.val45, i64 4
  %.val45.val = load i32, ptr %4, align 4, !tbaa !48
  %5 = sub nsw i32 %.val45.val, %.val46
  %6 = tail call ptr @Gia_ManStart(i32 noundef %5) #17
  %7 = load ptr, ptr %0, align 8, !tbaa !50
  %.not.i = icmp eq ptr %7, null
  br i1 %.not.i, label %Abc_UtilStrsav.exit, label %8

8:                                                ; preds = %1
  %9 = tail call i64 @strlen(ptr noundef nonnull readonly dereferenceable(1) %7) #18
  %10 = add i64 %9, 1
  %11 = tail call noalias ptr @malloc(i64 noundef %10) #19
  %12 = tail call ptr @strcpy(ptr noundef nonnull dereferenceable(1) %11, ptr noundef nonnull readonly dereferenceable(1) %7) #17
  br label %Abc_UtilStrsav.exit

Abc_UtilStrsav.exit:                              ; preds = %1, %8
  %13 = phi ptr [ %11, %8 ], [ null, %1 ]
  store ptr %13, ptr %6, align 8, !tbaa !51
  %14 = getelementptr inbounds nuw i8, ptr %0, i64 8
  %15 = load ptr, ptr %14, align 8, !tbaa !52
  %.not.i52 = icmp eq ptr %15, null
  br i1 %.not.i52, label %Abc_UtilStrsav.exit53, label %16

16:                                               ; preds = %Abc_UtilStrsav.exit
  %17 = tail call i64 @strlen(ptr noundef nonnull readonly dereferenceable(1) %15) #18
  %18 = add i64 %17, 1
  %19 = tail call noalias ptr @malloc(i64 noundef %18) #19
  %20 = tail call ptr @strcpy(ptr noundef nonnull dereferenceable(1) %19, ptr noundef nonnull readonly dereferenceable(1) %15) #17
  br label %Abc_UtilStrsav.exit53

Abc_UtilStrsav.exit53:                            ; preds = %Abc_UtilStrsav.exit, %16
  %21 = phi ptr [ %19, %16 ], [ null, %Abc_UtilStrsav.exit ]
  %22 = getelementptr inbounds nuw i8, ptr %6, i64 8
  store ptr %21, ptr %22, align 8, !tbaa !53
  %23 = getelementptr inbounds nuw i8, ptr %0, i64 120
  %24 = load i32, ptr %23, align 8, !tbaa !54
  %25 = getelementptr inbounds nuw i8, ptr %6, i64 172
  store i32 %24, ptr %25, align 4, !tbaa !55
  %.val43 = load ptr, ptr %2, align 8, !tbaa !46
  %.val44 = load i32, ptr %3, align 4, !tbaa !47
  %26 = getelementptr i8, ptr %.val43, i64 4
  %.val43.val = load i32, ptr %26, align 4, !tbaa !48
  %27 = sub nsw i32 %.val43.val, %.val44
  %28 = sext i32 %27 to i64
  %29 = tail call noalias ptr @calloc(i64 noundef %28, i64 noundef 4) #20
  %30 = getelementptr inbounds nuw i8, ptr %6, i64 208
  store ptr %29, ptr %30, align 8, !tbaa !71
  tail call void @Aig_ManCleanData(ptr noundef nonnull %0) #17
  %31 = getelementptr i8, ptr %0, i64 48
  %.val47 = load ptr, ptr %31, align 8, !tbaa !56
  %32 = getelementptr inbounds nuw i8, ptr %.val47, i64 40
  store i32 1, ptr %32, align 8, !tbaa !3
  %33 = getelementptr inbounds nuw i8, ptr %0, i64 16
  %34 = load ptr, ptr %33, align 8, !tbaa !57
  %35 = getelementptr i8, ptr %34, i64 4
  %.val4254 = load i32, ptr %35, align 4, !tbaa !48
  %36 = icmp sgt i32 %.val4254, 0
  br i1 %36, label %.lr.ph, label %.critedge.preheader

.critedge.preheader:                              ; preds = %.lr.ph, %Abc_UtilStrsav.exit53
  %37 = getelementptr inbounds nuw i8, ptr %0, i64 24
  %38 = load ptr, ptr %37, align 8, !tbaa !58
  %39 = getelementptr i8, ptr %38, i64 4
  %.val4156 = load i32, ptr %39, align 4, !tbaa !48
  %40 = icmp sgt i32 %.val4156, 0
  br i1 %40, label %.critedge, label %.critedge4

.lr.ph:                                           ; preds = %Abc_UtilStrsav.exit53, %.lr.ph
  %indvars.iv = phi i64 [ %indvars.iv.next, %.lr.ph ], [ 0, %Abc_UtilStrsav.exit53 ]
  %41 = phi ptr [ %47, %.lr.ph ], [ %34, %Abc_UtilStrsav.exit53 ]
  %42 = getelementptr i8, ptr %41, i64 8
  %.val50 = load ptr, ptr %42, align 8, !tbaa !59
  %43 = getelementptr inbounds nuw ptr, ptr %.val50, i64 %indvars.iv
  %44 = load ptr, ptr %43, align 8, !tbaa !60
  %45 = tail call fastcc i32 @Gia_ManAppendCi(ptr noundef nonnull %6)
  %46 = getelementptr inbounds nuw i8, ptr %44, i64 40
  store i32 %45, ptr %46, align 8, !tbaa !3
  %indvars.iv.next = add nuw nsw i64 %indvars.iv, 1
  %47 = load ptr, ptr %33, align 8, !tbaa !57
  %48 = getelementptr i8, ptr %47, i64 4
  %.val42 = load i32, ptr %48, align 4, !tbaa !48
  %49 = sext i32 %.val42 to i64
  %50 = icmp slt i64 %indvars.iv.next, %49
  br i1 %50, label %.lr.ph, label %.critedge.preheader, !llvm.loop !75

.critedge2.preheader:                             ; preds = %.critedge
  %51 = icmp sgt i32 %.val41, 0
  br i1 %51, label %.critedge2, label %.critedge4

.critedge:                                        ; preds = %.critedge.preheader, %.critedge
  %indvars.iv65 = phi i64 [ %indvars.iv.next66, %.critedge ], [ 0, %.critedge.preheader ]
  %52 = phi ptr [ %60, %.critedge ], [ %38, %.critedge.preheader ]
  %53 = getelementptr i8, ptr %52, i64 8
  %.val49 = load ptr, ptr %53, align 8, !tbaa !59
  %54 = getelementptr inbounds nuw ptr, ptr %.val49, i64 %indvars.iv65
  %55 = load ptr, ptr %54, align 8, !tbaa !60
  %56 = getelementptr i8, ptr %55, i64 8
  %.val = load ptr, ptr %56, align 8, !tbaa !6
  %57 = ptrtoint ptr %.val to i64
  %58 = and i64 %57, -2
  %59 = inttoptr i64 %58 to ptr
  tail call void @Gia_ManFromAigChoices_rec(ptr noundef nonnull %6, ptr noundef nonnull %0, ptr noundef %59)
  %indvars.iv.next66 = add nuw nsw i64 %indvars.iv65, 1
  %60 = load ptr, ptr %37, align 8, !tbaa !58
  %61 = getelementptr i8, ptr %60, i64 4
  %.val41 = load i32, ptr %61, align 4, !tbaa !48
  %62 = sext i32 %.val41 to i64
  %63 = icmp slt i64 %indvars.iv.next66, %62
  br i1 %63, label %.critedge, label %.critedge2.preheader, !llvm.loop !76

.critedge2:                                       ; preds = %.critedge2.preheader, %.critedge2
  %indvars.iv68 = phi i64 [ %indvars.iv.next69, %.critedge2 ], [ 0, %.critedge2.preheader ]
  %64 = phi ptr [ %78, %.critedge2 ], [ %60, %.critedge2.preheader ]
  %65 = getelementptr i8, ptr %64, i64 8
  %.val48 = load ptr, ptr %65, align 8, !tbaa !59
  %66 = getelementptr inbounds nuw ptr, ptr %.val48, i64 %indvars.iv68
  %67 = load ptr, ptr %66, align 8, !tbaa !60
  %68 = getelementptr i8, ptr %67, i64 8
  %.val39 = load ptr, ptr %68, align 8, !tbaa !6
  %69 = ptrtoint ptr %.val39 to i64
  %70 = and i64 %69, -2
  %71 = inttoptr i64 %70 to ptr
  %72 = getelementptr inbounds nuw i8, ptr %71, i64 40
  %73 = load i32, ptr %72, align 8, !tbaa !3
  %74 = trunc i64 %69 to i32
  %75 = and i32 %74, 1
  %76 = xor i32 %75, %73
  %77 = tail call fastcc i32 @Gia_ManAppendCo(ptr noundef nonnull %6, i32 noundef %76)
  %indvars.iv.next69 = add nuw nsw i64 %indvars.iv68, 1
  %78 = load ptr, ptr %37, align 8, !tbaa !58
  %79 = getelementptr i8, ptr %78, i64 4
  %.val40 = load i32, ptr %79, align 4, !tbaa !48
  %80 = sext i32 %.val40 to i64
  %81 = icmp slt i64 %indvars.iv.next69, %80
  br i1 %81, label %.critedge2, label %.critedge4, !llvm.loop !77

.critedge4:                                       ; preds = %.critedge2, %.critedge.preheader, %.critedge2.preheader
  %82 = getelementptr i8, ptr %0, i64 104
  %.val51 = load i32, ptr %82, align 8, !tbaa !65
  tail call void @Gia_ManSetRegNum(ptr noundef nonnull %6, i32 noundef %.val51) #17
  ret ptr %6
}